target datalayout = "e-m:e-p270:32:32-p271:32:32-p272:64:64-i64:64-i128:128-f80:128-n8:16:32:64-S128"
target triple = "x86_64-pc-linux-gnu"

%struct._object = type { %union.anon, ptr }
%union.anon = type { i64 }
%struct.anon.5 = type { i32, i32 }

; Function Attrs: alwaysinline nounwind uwtable
define internal i32 @_Py_IsImmortal(ptr noundef %0) #5 {
  %2 = alloca ptr, align 8
  store ptr %0, ptr %2, align 8, !tbaa !9
  %3 = load ptr, ptr %2, align 8, !tbaa !9
  %4 = getelementptr inbounds nuw %struct._object, ptr %3, i32 0, i32 0
  %5 = getelementptr inbounds nuw %struct.anon.5, ptr %4, i32 0, i32 0
  %6 = load i32, ptr %5, align 8, !tbaa !102
  %7 = icmp slt i32 %6, 0
  %8 = zext i1 %7 to i32
  ret i32 %8
}

; Function Attrs: alwaysinline nounwind uwtable
define internal void @Py_DECREF(ptr noundef %0) #5 {
  %2 = alloca ptr, align 8
  store ptr %0, ptr %2, align 8, !tbaa !9
  %3 = load ptr, ptr %2, align 8, !tbaa !9
  %4 = call i32 @_Py_IsImmortal(ptr noundef %3)
  %5 = icmp ne i32 %4, 0
  br i1 %5, label %6, label %7

6:                                                ; preds = %1
  br label %16

7:                                                ; preds = %1
  %8 = load ptr, ptr %2, align 8, !tbaa !9
  %9 = getelementptr inbounds nuw %struct._object, ptr %8, i32 0, i32 0
  %10 = getelementptr inbounds nuw %struct.anon.5, ptr %9, i32 0, i32 0
  %11 = load i32, ptr %10, align 8, !tbaa !102
  %12 = add i32 %11, -1
  store i32 %12, ptr %10, align 8, !tbaa !102
  %13 = icmp eq i32 %12, 0
  br i1 %13, label %14, label %16

14:                                               ; preds = %7
  %15 = load ptr, ptr %2, align 8, !tbaa !9
  call void @_Py_Dealloc(ptr noundef %15)
  br label %16

16:                                               ; preds = %6, %14, %7
  ret void
}

; Function Attrs: nounwind uwtable
define internal ptr @list_builtin_module_names() #0 {
  %1 = alloca ptr, align 8
  %2 = alloca ptr, align 8
  %3 = alloca i32, align 4
  %4 = alloca ptr, align 8
  call void @llvm.lifetime.start.p0(i64 8, ptr %2) #12
  %5 = call ptr @_PyImport_GetBuiltinModuleNames()
  store ptr %5, ptr %2, align 8, !tbaa !9
  %6 = load ptr, ptr %2, align 8, !tbaa !9
  %7 = icmp eq ptr %6, null
  br i1 %7, label %8, label %9

8:                                                ; preds = %0
  store ptr null, ptr %1, align 8
  store i32 1, ptr %3, align 4
  br label %21

9:                                                ; preds = %0
  %10 = load ptr, ptr %2, align 8, !tbaa !9
  %11 = call i32 @PyList_Sort(ptr noundef %10)
  %12 = icmp ne i32 %11, 0
  br i1 %12, label %13, label %14

13:                                               ; preds = %9
  br label %19

14:                                               ; preds = %9
  %15 = load ptr, ptr %2, align 8, !tbaa !9
  %16 = call ptr @PyList_AsTuple(ptr noundef %15)
  store ptr %16, ptr %4, align 8, !tbaa !9
  %17 = load ptr, ptr %2, align 8, !tbaa !9
  call void @Py_DECREF(ptr noundef %17)
  %18 = load ptr, ptr %4, align 8, !tbaa !9
  store ptr %18, ptr %1, align 8
  store i32 1, ptr %3, align 4
  br label %21

19:                                               ; preds = %13
  %20 = load ptr, ptr %2, align 8, !tbaa !9
  call void @Py_DECREF(ptr noundef %20)
  store ptr null, ptr %1, align 8
  store i32 1, ptr %3, align 4
  br label %21

21:                                               ; preds = %19, %14, %8
  call void @llvm.lifetime.end.p0(i64 8, ptr %2) #12
  %22 = load ptr, ptr %1, align 8
  ret ptr %22
}