; Function Attrs: nounwind uwtable
define internal fastcc ptr @list_builtin_module_names() unnamed_addr #0 {
  %1 = tail call ptr @_PyImport_GetBuiltinModuleNames() #15
  %2 = icmp eq ptr %1, null
  br i1 %2, label %Py_DECREF.exit9, label %3

3:                                                ; preds = %0
  %4 = tail call i32 @PyList_Sort(ptr noundef nonnull %1) #15
  %.not = icmp eq i32 %4, 0
  br i1 %.not, label %5, label %11

5:                                                ; preds = %3
  %6 = tail call ptr @PyList_AsTuple(ptr noundef nonnull %1) #15
  %7 = load i32, ptr %1, align 8, !tbaa !94
  %.not.i8 = icmp sgt i32 %7, -1
  br i1 %.not.i8, label %8, label %Py_DECREF.exit9

8:                                                ; preds = %5
  %9 = add nsw i32 %7, -1
  store i32 %9, ptr %1, align 8, !tbaa !94
  %10 = icmp eq i32 %9, 0
  br i1 %10, label %Py_DECREF.exit9.sink.split, label %Py_DECREF.exit9

11:                                               ; preds = %3
  %12 = load i32, ptr %1, align 8, !tbaa !94
  %.not.i = icmp sgt i32 %12, -1
  br i1 %.not.i, label %13, label %Py_DECREF.exit9

13:                                               ; preds = %11
  %14 = add nsw i32 %12, -1
  store i32 %14, ptr %1, align 8, !tbaa !94
  %15 = icmp eq i32 %14, 0
  br i1 %15, label %Py_DECREF.exit9.sink.split, label %Py_DECREF.exit9

Py_DECREF.exit9.sink.split:                       ; preds = %13, %8
  %.0.ph = phi ptr [ %6, %8 ], [ null, %13 ]
  tail call void @_Py_Dealloc(ptr noundef nonnull %1) #15
  br label %Py_DECREF.exit9

Py_DECREF.exit9:                                  ; preds = %Py_DECREF.exit9.sink.split, %13, %11, %8, %5, %0
  %.0 = phi ptr [ null, %0 ], [ %6, %5 ], [ %6, %8 ], [ null, %11 ], [ null, %13 ], [ %.0.ph, %Py_DECREF.exit9.sink.split ]
  ret ptr %.0
}